target datalayout = "e-m:e-p270:32:32-p271:32:32-p272:64:64-i64:64-i128:128-f80:128-n8:16:32:64-S128"
target triple = "x86_64-pc-linux-gnu"

%class.GraphKit = type <{ ptr, %class.Phase, ptr, ptr, ptr, ptr, i32, [4 x i8], ptr, ptr, i32, [4 x i8] }>
%class.Phase = type { i32, ptr }
%class.MethodLivenessResult = type <{ %class.ResourceBitMap, i8, [7 x i8] }>
%class.ResourceBitMap = type { %class.GrowableBitMap }
%class.GrowableBitMap = type { %class.BitMap }
%class.BitMap = type { ptr, i64 }
%class.Parse = type { %class.GraphKit.base, ptr, float, float, i32, ptr, i32, ptr, ptr, i32, [4 x i8], %class.GraphKit, i8, i8, i8, i8, ptr, ptr, %class.ciBytecodeStream, ptr, i8, i8, i32 }
%class.GraphKit.base = type <{ ptr, %class.Phase, ptr, ptr, ptr, ptr, i32, [4 x i8], ptr, ptr, i32 }>
%class.ciBytecodeStream = type { ptr, ptr, ptr, ptr, ptr, ptr, ptr, ptr, i32, i32 }
%"class.Parse::Block" = type { ptr, i32, i32, i32, i8, i8, i8, ptr, %class.MethodLivenessResult, i8, i32, i32, ptr }
%class.ciTypeFlow = type { ptr, ptr, i32, i8, ptr, ptr, ptr, ptr, ptr, i32, ptr, ptr }

@_ZN5Parse5BlockC1EPS_i = hidden unnamed_addr alias void (ptr, ptr, i32), ptr @_ZN5Parse5BlockC2EPS_i

; Function Attrs: mustprogress nounwind uwtable
define linkonce_odr hidden noundef ptr @_ZN5Parse6rpo_atEi(ptr noundef nonnull align 8 dereferenceable(352) %0, i32 noundef %1) #1 comdat align 2 {
  %3 = alloca ptr, align 8
  %4 = alloca i32, align 4
  store ptr %0, ptr %3, align 8
  store i32 %1, ptr %4, align 4
  %5 = load ptr, ptr %3, align 8
  %6 = getelementptr inbounds %class.Parse, ptr %5, i32 0, i32 8
  %7 = load ptr, ptr %6, align 8
  %8 = load i32, ptr %4, align 4
  %9 = sext i32 %8 to i64
  %10 = getelementptr inbounds %"class.Parse::Block", ptr %7, i64 %9
  ret ptr %10
}

; Function Attrs: mustprogress nounwind uwtable
define linkonce_odr hidden noundef i32 @_ZNK5Parse11block_countEv(ptr noundef nonnull align 8 dereferenceable(352) %0) #1 comdat align 2 {
  %2 = alloca ptr, align 8
  store ptr %0, ptr %2, align 8
  %3 = load ptr, ptr %2, align 8
  %4 = getelementptr inbounds %class.Parse, ptr %3, i32 0, i32 9
  %5 = load i32, ptr %4, align 8
  ret i32 %5
}

; Function Attrs: mustprogress nounwind uwtable
define linkonce_odr hidden noundef i32 @_ZNK10ciTypeFlow11block_countEv(ptr noundef nonnull align 8 dereferenceable(88) %0) #1 comdat align 2 {
  %2 = alloca ptr, align 8
  store ptr %0, ptr %2, align 8
  %3 = load ptr, ptr %2, align 8
  %4 = getelementptr inbounds %class.ciTypeFlow, ptr %3, i32 0, i32 9
  %5 = load i32, ptr %4, align 8
  ret i32 %5
}

; Function Attrs: mustprogress nounwind uwtable
define linkonce_odr hidden noundef ptr @_ZNK5Parse4flowEv(ptr noundef nonnull align 8 dereferenceable(352) %0) #1 comdat align 2 {
  %2 = alloca ptr, align 8
  store ptr %0, ptr %2, align 8
  %3 = load ptr, ptr %2, align 8
  %4 = getelementptr inbounds %class.Parse, ptr %3, i32 0, i32 7
  %5 = load ptr, ptr %4, align 8
  ret ptr %5
}

; Function Attrs: mustprogress nounwind uwtable
define hidden void @_ZN5Parse11init_blocksEv(ptr noundef nonnull align 8 dereferenceable(352) %0) #1 align 2 {
  %2 = alloca ptr, align 8
  %3 = alloca i32, align 4
  %4 = alloca ptr, align 8
  %5 = alloca i32, align 4
  %6 = alloca ptr, align 8
  store ptr %0, ptr %2, align 8
  %7 = load ptr, ptr %2, align 8
  %8 = call noundef ptr @_ZNK5Parse4flowEv(ptr noundef nonnull align 8 dereferenceable(352) %7)
  %9 = call noundef i32 @_ZNK10ciTypeFlow11block_countEv(ptr noundef nonnull align 8 dereferenceable(88) %8)
  %10 = getelementptr inbounds %class.Parse, ptr %7, i32 0, i32 9
  store i32 %9, ptr %10, align 8
  %11 = getelementptr inbounds %class.Parse, ptr %7, i32 0, i32 9
  %12 = load i32, ptr %11, align 8
  %13 = sext i32 %12 to i64
  %14 = mul i64 %13, 80
  %15 = call noundef ptr @_Z23resource_allocate_bytesmN17AllocFailStrategy13AllocFailEnumE(i64 noundef %14, i32 noundef 0)
  %16 = getelementptr inbounds %class.Parse, ptr %7, i32 0, i32 8
  store ptr %15, ptr %16, align 8
  store i32 0, ptr %3, align 4
  br label %17

17:                                               ; preds = %26, %1
  %18 = load i32, ptr %3, align 4
  %19 = call noundef i32 @_ZNK5Parse11block_countEv(ptr noundef nonnull align 8 dereferenceable(352) %7)
  %20 = icmp slt i32 %18, %19
  br i1 %20, label %21, label %29

21:                                               ; preds = %17
  %22 = load i32, ptr %3, align 4
  %23 = call noundef ptr @_ZN5Parse6rpo_atEi(ptr noundef nonnull align 8 dereferenceable(352) %7, i32 noundef %22)
  store ptr %23, ptr %4, align 8
  %24 = load ptr, ptr %4, align 8
  %25 = load i32, ptr %3, align 4
  call void @_ZN5Parse5BlockC1EPS_i(ptr noundef nonnull align 8 dereferenceable(80) %24, ptr noundef %7, i32 noundef %25)
  br label %26

26:                                               ; preds = %21
  %27 = load i32, ptr %3, align 4
  %28 = add nsw i32 %27, 1
  store i32 %28, ptr %3, align 4
  br label %17, !llvm.loop !13

29:                                               ; preds = %17
  store i32 0, ptr %5, align 4
  br label %30

30:                                               ; preds = %38, %29
  %31 = load i32, ptr %5, align 4
  %32 = call noundef i32 @_ZNK5Parse11block_countEv(ptr noundef nonnull align 8 dereferenceable(352) %7)
  %33 = icmp slt i32 %31, %32
  br i1 %33, label %34, label %41

34:                                               ; preds = %30
  %35 = load i32, ptr %5, align 4
  %36 = call noundef ptr @_ZN5Parse6rpo_atEi(ptr noundef nonnull align 8 dereferenceable(352) %7, i32 noundef %35)
  store ptr %36, ptr %6, align 8
  %37 = load ptr, ptr %6, align 8
  call void @_ZN5Parse5Block10init_graphEPS_(ptr noundef nonnull align 8 dereferenceable(80) %37, ptr noundef %7)
  br label %38

38:                                               ; preds = %34
  %39 = load i32, ptr %5, align 4
  %40 = add nsw i32 %39, 1
  store i32 %40, ptr %5, align 4
  br label %30, !llvm.loop !14

41:                                               ; preds = %30
  ret void
}