; Function Attrs: mustprogress nounwind uwtable
define hidden void @_ZN5Parse11init_blocksEv(ptr nocapture noundef nonnull align 8 dereferenceable(352) %0) local_unnamed_addr #0 align 2 {
  %2 = getelementptr inbounds i8, ptr %0, i64 128
  %3 = load ptr, ptr %2, align 8
  %4 = getelementptr inbounds i8, ptr %3, i64 64
  %5 = load i32, ptr %4, align 8
  %6 = getelementptr inbounds i8, ptr %0, i64 144
  store i32 %5, ptr %6, align 8
  %7 = sext i32 %5 to i64
  %8 = mul nsw i64 %7, 80
  %9 = tail call noundef ptr @_Z23resource_allocate_bytesmN17AllocFailStrategy13AllocFailEnumE(i64 noundef %8, i32 noundef 0) #14
  %10 = getelementptr inbounds i8, ptr %0, i64 136
  store ptr %9, ptr %10, align 8
  %11 = load i32, ptr %6, align 8
  %12 = icmp sgt i32 %11, 0
  br i1 %12, label %.lr.ph, label %._crit_edge

.preheader:                                       ; preds = %_ZN5Parse5BlockC2EPS_i.exit
  %13 = icmp sgt i32 %33, 0
  br i1 %13, label %.lr.ph12, label %._crit_edge

.lr.ph:                                           ; preds = %1, %_ZN5Parse5BlockC2EPS_i.exit
  %indvars.iv = phi i64 [ %indvars.iv.next, %_ZN5Parse5BlockC2EPS_i.exit ], [ 0, %1 ]
  %14 = load ptr, ptr %10, align 8
  %15 = getelementptr inbounds %"class.Parse::Block", ptr %14, i64 %indvars.iv
  %16 = getelementptr inbounds i8, ptr %15, i64 32
  tail call void @_ZN14ResourceBitMapC2Emb(ptr noundef nonnull align 8 dereferenceable(16) %16, i64 noundef 0, i1 noundef zeroext true) #14
  %17 = getelementptr inbounds i8, ptr %15, i64 48
  store i8 0, ptr %17, align 8
  %18 = load ptr, ptr %2, align 8
  %19 = getelementptr inbounds i8, ptr %18, i64 32
  %20 = load ptr, ptr %19, align 8
  %21 = getelementptr inbounds ptr, ptr %20, i64 %indvars.iv
  %22 = load ptr, ptr %21, align 8
  store ptr %22, ptr %15, align 8
  %23 = getelementptr inbounds i8, ptr %15, i64 8
  %24 = getelementptr inbounds i8, ptr %15, i64 24
  store ptr null, ptr %24, align 8
  %25 = getelementptr inbounds i8, ptr %15, i64 56
  store i8 0, ptr %25, align 8
  %26 = getelementptr inbounds i8, ptr %15, i64 60
  store i32 0, ptr %26, align 4
  %27 = getelementptr inbounds i8, ptr %15, i64 64
  store i32 0, ptr %27, align 8
  %28 = getelementptr inbounds i8, ptr %15, i64 72
  store ptr null, ptr %28, align 8
  %29 = getelementptr inbounds i8, ptr %22, i64 80
  tail call void @llvm.memset.p0.i64(ptr noundef nonnull align 8 dereferenceable(15) %23, i8 0, i64 15, i1 false)
  %30 = load i32, ptr %29, align 8
  %31 = icmp eq i32 %30, 0
  br i1 %31, label %32, label %_ZN5Parse5BlockC2EPS_i.exit

32:                                               ; preds = %.lr.ph
  store i32 1, ptr %23, align 8
  br label %_ZN5Parse5BlockC2EPS_i.exit

_ZN5Parse5BlockC2EPS_i.exit:                      ; preds = %.lr.ph, %32
  %indvars.iv.next = add nuw nsw i64 %indvars.iv, 1
  %33 = load i32, ptr %6, align 8
  %34 = sext i32 %33 to i64
  %35 = icmp slt i64 %indvars.iv.next, %34
  br i1 %35, label %.lr.ph, label %.preheader, !llvm.loop !14

.lr.ph12:                                         ; preds = %.preheader, %.lr.ph12
  %indvars.iv14 = phi i64 [ %indvars.iv.next15, %.lr.ph12 ], [ 0, %.preheader ]
  %36 = load ptr, ptr %10, align 8
  %37 = getelementptr inbounds %"class.Parse::Block", ptr %36, i64 %indvars.iv14
  tail call void @_ZN5Parse5Block10init_graphEPS_(ptr noundef nonnull align 8 dereferenceable(80) %37, ptr noundef nonnull %0)
  %indvars.iv.next15 = add nuw nsw i64 %indvars.iv14, 1
  %38 = load i32, ptr %6, align 8
  %39 = sext i32 %38 to i64
  %40 = icmp slt i64 %indvars.iv.next15, %39
  br i1 %40, label %.lr.ph12, label %._crit_edge, !llvm.loop !15

._crit_edge:                                      ; preds = %.lr.ph12, %1, %.preheader
  ret void
}